target datalayout = "e-m:e-p270:32:32-p271:32:32-p272:64:64-i64:64-i128:128-f80:128-n8:16:32:64-S128"
target triple = "x86_64-pc-linux-gnu"

%struct.mbedtls_pk_info_t = type { i32, ptr, ptr, ptr, ptr, ptr, ptr, ptr, ptr, ptr, ptr, ptr }
%struct.mbedtls_pk_context = type { ptr, ptr }

; Function Attrs: nounwind uwtable
define hidden i32 @mbedtls_pk_debug(ptr noundef %0, ptr noundef %1) #0 {
  %3 = alloca i32, align 4
  %4 = alloca ptr, align 8
  %5 = alloca ptr, align 8
  store ptr %0, ptr %4, align 8, !tbaa !3
  store ptr %1, ptr %5, align 8, !tbaa !70
  %6 = load ptr, ptr %4, align 8, !tbaa !3
  %7 = getelementptr inbounds nuw %struct.mbedtls_pk_context, ptr %6, i32 0, i32 0
  %8 = load ptr, ptr %7, align 8, !tbaa !8
  %9 = icmp eq ptr %8, null
  br i1 %9, label %10, label %11

10:                                               ; preds = %2
  store i32 -16000, ptr %3, align 4
  br label %27

11:                                               ; preds = %2
  %12 = load ptr, ptr %4, align 8, !tbaa !3
  %13 = getelementptr inbounds nuw %struct.mbedtls_pk_context, ptr %12, i32 0, i32 0
  %14 = load ptr, ptr %13, align 8, !tbaa !8
  %15 = getelementptr inbounds nuw %struct.mbedtls_pk_info_t, ptr %14, i32 0, i32 11
  %16 = load ptr, ptr %15, align 8, !tbaa !72
  %17 = icmp eq ptr %16, null
  br i1 %17, label %18, label %19

18:                                               ; preds = %11
  store i32 -16128, ptr %3, align 4
  br label %27

19:                                               ; preds = %11
  %20 = load ptr, ptr %4, align 8, !tbaa !3
  %21 = getelementptr inbounds nuw %struct.mbedtls_pk_context, ptr %20, i32 0, i32 0
  %22 = load ptr, ptr %21, align 8, !tbaa !8
  %23 = getelementptr inbounds nuw %struct.mbedtls_pk_info_t, ptr %22, i32 0, i32 11
  %24 = load ptr, ptr %23, align 8, !tbaa !72
  %25 = load ptr, ptr %4, align 8, !tbaa !3
  %26 = load ptr, ptr %5, align 8, !tbaa !70
  call void %24(ptr noundef %25, ptr noundef %26)
  store i32 0, ptr %3, align 4
  br label %27

27:                                               ; preds = %19, %18, %10
  %28 = load i32, ptr %3, align 4
  ret i32 %28
}