; Function Attrs: nounwind uwtable
define hidden range(i32 -16128, 1) i32 @mbedtls_pk_debug(ptr noundef %0, ptr noundef %1) local_unnamed_addr #1 {
  %3 = load ptr, ptr %0, align 8, !tbaa !3
  %4 = icmp eq ptr %3, null
  br i1 %4, label %10, label %5

5:                                                ; preds = %2
  %6 = getelementptr inbounds nuw i8, ptr %3, i64 88
  %7 = load ptr, ptr %6, align 8, !tbaa !53
  %8 = icmp eq ptr %7, null
  br i1 %8, label %10, label %9

9:                                                ; preds = %5
  tail call void %7(ptr noundef nonnull %0, ptr noundef %1) #7
  br label %10

10:                                               ; preds = %5, %2, %9
  %.0 = phi i32 [ 0, %9 ], [ -16000, %2 ], [ -16128, %5 ]
  ret i32 %.0
}